target datalayout = "e-m:e-p270:32:32-p271:32:32-p272:64:64-i64:64-i128:128-f80:128-n8:16:32:64-S128"
target triple = "x86_64-pc-linux-gnu"

%struct._zend_phpdbg_globals = type { [11 x %struct._zend_array], %struct._zend_array, %struct._zend_array, ptr, ptr, %struct.phpdbg_frame_t, i32, ptr, %struct.phpdbg_lexer_data, ptr, %struct.sigaction, i32, i64, %struct.phpdbg_btree, %struct.phpdbg_btree, %struct._zend_array, %struct._zend_array, %struct._zend_array, %struct._zend_array, ptr, ptr, i8, ptr, ptr, ptr, i64, ptr, %struct._zval_struct, i32, i32, i8, i8, ptr, ptr, ptr, %struct._zend_array, ptr, ptr, ptr, [3 x %struct.anon.8], ptr, %struct.anon.9, i64, [2 x ptr], [3 x ptr], ptr, i8, ptr, ptr, [500 x i8], i32, %struct.phpdbg_signal_safe_mem, ptr, i64, ptr, i64 }
%struct.phpdbg_frame_t = type { i32, ptr, ptr }
%struct.phpdbg_lexer_data = type { i32, ptr, ptr, ptr, ptr, i32 }
%struct.sigaction = type { %union.anon.7, %struct.__sigset_t, i32, ptr }
%union.anon.7 = type { ptr }
%struct.__sigset_t = type { [16 x i64] }
%struct.phpdbg_btree = type { i64, i64, i8, ptr }
%struct._zval_struct = type { %union._zend_value, %union.anon, %union.anon.2 }
%union._zend_value = type { i64 }
%union.anon = type { i32 }
%union.anon.2 = type { i32 }
%struct._zend_array = type { %struct._zend_refcounted_h, %union.anon.4, i32, %union.anon.6, i32, i32, i32, i32, i64, ptr }
%struct._zend_refcounted_h = type { i32, %union.anon.3 }
%union.anon.3 = type { i32 }
%union.anon.4 = type { i32 }
%union.anon.6 = type { ptr }
%struct.anon.8 = type { i32 }
%struct.anon.9 = type { i8, i32, i32, ptr, i32 }
%struct.phpdbg_signal_safe_mem = type { ptr, i8, ptr, ptr }
%struct._phpdbg_param = type { i32, i64, i64, %struct.anon.30, %struct.anon.31, ptr, i64, ptr, ptr }
%struct.anon.30 = type { ptr, i64 }
%struct.anon.31 = type { ptr, ptr }

@phpdbg_globals = external global %struct._zend_phpdbg_globals, align 8
@.str.32 = private unnamed_addr constant [22 x i8] c"Removed watchpoint %d\00", align 1
@.str.33 = private unnamed_addr constant [55 x i8] c"Nothing was deleted, no corresponding watchpoint found\00", align 1
@.str.34 = private unnamed_addr constant [44 x i8] c"Unsupported parameter type (%s) for command\00", align 1

; Function Attrs: nounwind uwtable
define hidden i32 @phpdbg_do_watch_delete(ptr noundef %0) #0 {
  %2 = alloca ptr, align 8
  %3 = alloca ptr, align 8
  %4 = alloca i64, align 8
  %5 = alloca ptr, align 8
  %6 = alloca ptr, align 8
  %7 = alloca ptr, align 8
  store ptr %0, ptr %6, align 8
  %8 = load ptr, ptr %6, align 8
  %9 = getelementptr inbounds %struct._phpdbg_param, ptr %8, i32 0, i32 0
  %10 = load i32, ptr %9, align 8
  switch i32 %10, label %42 [
    i32 6, label %11
  ]

11:                                               ; preds = %1
  %12 = load ptr, ptr %6, align 8
  %13 = getelementptr inbounds %struct._phpdbg_param, ptr %12, i32 0, i32 1
  %14 = load i64, ptr %13, align 8
  store ptr getelementptr inbounds (%struct._zend_phpdbg_globals, ptr @phpdbg_globals, i32 0, i32 15), ptr %3, align 8
  store i64 %14, ptr %4, align 8
  %15 = load ptr, ptr %3, align 8
  %16 = load i64, ptr %4, align 8
  %17 = call ptr @zend_hash_index_find(ptr noundef %15, i64 noundef %16) #11
  store ptr %17, ptr %5, align 8
  %18 = load ptr, ptr %5, align 8
  %19 = icmp ne ptr %18, null
  br i1 %19, label %20, label %26

20:                                               ; preds = %11
  %21 = load ptr, ptr %5, align 8
  %22 = load ptr, ptr %21, align 8
  %23 = icmp ne ptr %22, null
  call void @llvm.assume(i1 %23)
  %24 = load ptr, ptr %5, align 8
  %25 = load ptr, ptr %24, align 8
  store ptr %25, ptr %2, align 8
  br label %27

26:                                               ; preds = %11
  store ptr null, ptr %2, align 8
  br label %27

27:                                               ; preds = %26, %20
  %28 = load ptr, ptr %2, align 8
  store ptr %28, ptr %7, align 8
  %29 = icmp ne ptr %28, null
  br i1 %29, label %30, label %38

30:                                               ; preds = %27
  %31 = load ptr, ptr %7, align 8
  call void @phpdbg_remove_watch_element(ptr noundef %31)
  %32 = load i32, ptr getelementptr inbounds (%struct._zend_phpdbg_globals, ptr @phpdbg_globals, i32 0, i32 39, i64 1), align 4
  %33 = load ptr, ptr %6, align 8
  %34 = getelementptr inbounds %struct._phpdbg_param, ptr %33, i32 0, i32 1
  %35 = load i64, ptr %34, align 8
  %36 = trunc i64 %35 to i32
  %37 = call i32 (i32, i32, ptr, ...) @phpdbg_print(i32 noundef 2, i32 noundef %32, ptr noundef @.str.32, i32 noundef %36)
  br label %41

38:                                               ; preds = %27
  %39 = load i32, ptr getelementptr inbounds (%struct._zend_phpdbg_globals, ptr @phpdbg_globals, i32 0, i32 39, i64 1), align 4
  %40 = call i32 (i32, i32, ptr, ...) @phpdbg_print(i32 noundef 1, i32 noundef %39, ptr noundef @.str.33)
  br label %41

41:                                               ; preds = %38, %30
  br label %47

42:                                               ; preds = %1
  %43 = load i32, ptr getelementptr inbounds (%struct._zend_phpdbg_globals, ptr @phpdbg_globals, i32 0, i32 39, i64 1), align 4
  %44 = load ptr, ptr %6, align 8
  %45 = call ptr @phpdbg_get_param_type(ptr noundef %44)
  %46 = call i32 (i32, i32, ptr, ...) @phpdbg_print(i32 noundef 1, i32 noundef %43, ptr noundef @.str.34, ptr noundef %45)
  br label %47

47:                                               ; preds = %42, %41
  ret i32 0
}