; Function Attrs: nounwind uwtable
define hidden noundef i32 @phpdbg_do_watch_delete(ptr noundef %0) #0 {
  %2 = load i32, ptr %0, align 8
  %cond = icmp eq i32 %2, 6
  br i1 %cond, label %3, label %16

3:                                                ; preds = %1
  %4 = getelementptr inbounds i8, ptr %0, i64 8
  %5 = load i64, ptr %4, align 8
  %6 = tail call ptr @zend_hash_index_find(ptr noundef nonnull getelementptr inbounds (%struct._zend_phpdbg_globals, ptr @phpdbg_globals, i64 0, i32 15), i64 noundef %5) #17
  %.not = icmp eq ptr %6, null
  br i1 %.not, label %13, label %7

7:                                                ; preds = %3
  %8 = load ptr, ptr %6, align 8, !nonnull !4, !noundef !4
  tail call void @phpdbg_remove_watch_element(ptr noundef nonnull %8)
  %9 = load i32, ptr getelementptr inbounds (%struct._zend_phpdbg_globals, ptr @phpdbg_globals, i64 0, i32 39, i64 1), align 4
  %10 = load i64, ptr %4, align 8
  %11 = trunc i64 %10 to i32
  %12 = tail call i32 (i32, i32, ptr, ...) @phpdbg_print(i32 noundef 2, i32 noundef %9, ptr noundef nonnull @.str.32, i32 noundef %11) #17
  br label %20

13:                                               ; preds = %3
  %14 = load i32, ptr getelementptr inbounds (%struct._zend_phpdbg_globals, ptr @phpdbg_globals, i64 0, i32 39, i64 1), align 4
  %15 = tail call i32 (i32, i32, ptr, ...) @phpdbg_print(i32 noundef 1, i32 noundef %14, ptr noundef nonnull @.str.33) #17
  br label %20

16:                                               ; preds = %1
  %17 = load i32, ptr getelementptr inbounds (%struct._zend_phpdbg_globals, ptr @phpdbg_globals, i64 0, i32 39, i64 1), align 4
  %18 = tail call ptr @phpdbg_get_param_type(ptr noundef nonnull %0) #17
  %19 = tail call i32 (i32, i32, ptr, ...) @phpdbg_print(i32 noundef 1, i32 noundef %17, ptr noundef nonnull @.str.34, ptr noundef %18) #17
  br label %20

20:                                               ; preds = %7, %13, %16
  ret i32 0
}